; Function Attrs: mustprogress nounwind uwtable
define hidden noundef ptr @_ZN8IdealKit6memoryEj(ptr nocapture noundef nonnull readonly align 8 dereferenceable(64) %0, i32 noundef %1) local_unnamed_addr #0 align 2 {
  %3 = getelementptr inbounds i8, ptr %0, i64 24
  %4 = load ptr, ptr %3, align 8
  %5 = getelementptr inbounds i8, ptr %4, i64 8
  %6 = load ptr, ptr %5, align 8
  %7 = getelementptr inbounds i8, ptr %6, i64 16
  %8 = load ptr, ptr %7, align 8
  %9 = tail call noundef ptr @_ZNK12MergeMemNode9memory_atEj(ptr noundef nonnull align 8 dereferenceable(52) %8, i32 noundef %1) #6
  %10 = getelementptr inbounds i8, ptr %0, i64 8
  %11 = load ptr, ptr %10, align 8
  %12 = load ptr, ptr @_ZN4Type6MEMORYE, align 8
  %13 = getelementptr inbounds i8, ptr %11, i64 40
  %14 = load ptr, ptr %13, align 8
  %15 = getelementptr inbounds i8, ptr %9, i64 40
  %16 = load i32, ptr %15, align 8
  %17 = getelementptr inbounds i8, ptr %14, i64 8
  %18 = load i32, ptr %17, align 8
  %.not.i.i = icmp ugt i32 %18, %16
  br i1 %.not.i.i, label %_ZN11PhaseValues8set_typeEPK4NodePK4Type.exit, label %19

19:                                               ; preds = %2
  tail call void @_ZN10Type_Array4growEj(ptr noundef nonnull align 8 dereferenceable(24) %14, i32 noundef %16) #6
  br label %_ZN11PhaseValues8set_typeEPK4NodePK4Type.exit

_ZN11PhaseValues8set_typeEPK4NodePK4Type.exit:    ; preds = %2, %19
  %20 = getelementptr inbounds i8, ptr %14, i64 16
  %21 = load ptr, ptr %20, align 8
  %22 = zext i32 %16 to i64
  %23 = getelementptr inbounds ptr, ptr %21, i64 %22
  store ptr %12, ptr %23, align 8
  ret ptr %9
}